target datalayout = "e-m:e-p270:32:32-p271:32:32-p272:64:64-i64:64-i128:128-f80:128-n8:16:32:64-S128"
target triple = "x86_64-pc-linux-gnu"

%class.PerfData = type { ptr, ptr, i32, i32, i8, i32, ptr, ptr }
%class.ClassPathEntry = type { ptr, ptr }
%class.ClassPathZipEntry = type <{ %class.ClassPathEntry, ptr, ptr, i8, [7 x i8] }>

@_ZN11ClassLoader30_perf_sys_classfile_bytes_readE = hidden global ptr null, align 8
@UsePerfData = external global i8, align 1
@_ZN15ClassFileStream6verifyE = external constant i8, align 1

; Function Attrs: mustprogress nounwind uwtable
define linkonce_odr hidden noundef ptr @_ZN11ResourceObjnwEm(i64 noundef %0) #1 comdat align 2 {
  %2 = alloca i64, align 8
  store i64 %0, ptr %2, align 8
  %3 = load i64, ptr %2, align 8
  %4 = call noundef ptr @_Z23resource_allocate_bytesmN17AllocFailStrategy13AllocFailEnumE(i64 noundef %3, i32 noundef 0)
  ret ptr %4
}

; Function Attrs: mustprogress nounwind uwtable
define linkonce_odr hidden void @_ZN15PerfLongVariant3incEl(ptr noundef nonnull align 8 dereferenceable(56) %0, i64 noundef %1) #1 comdat align 2 {
  %3 = alloca ptr, align 8
  %4 = alloca i64, align 8
  store ptr %0, ptr %3, align 8
  store i64 %1, ptr %4, align 8
  %5 = load ptr, ptr %3, align 8
  %6 = load i64, ptr %4, align 8
  %7 = getelementptr inbounds %class.PerfData, ptr %5, i32 0, i32 7
  %8 = load ptr, ptr %7, align 8
  %9 = load i64, ptr %8, align 8
  %10 = add nsw i64 %9, %6
  store i64 %10, ptr %8, align 8
  ret void
}

; Function Attrs: mustprogress nounwind uwtable
define linkonce_odr hidden noundef ptr @_ZN11ClassLoader29perf_sys_classfile_bytes_readEv() #1 comdat align 2 {
  %1 = load ptr, ptr @_ZN11ClassLoader30_perf_sys_classfile_bytes_readE, align 8
  ret ptr %1
}

; Function Attrs: mustprogress nounwind uwtable
define hidden noundef ptr @_ZN17ClassPathZipEntry11open_streamEP10JavaThreadPKc(ptr noundef nonnull align 8 dereferenceable(33) %0, ptr noundef %1, ptr noundef %2) unnamed_addr #1 align 2 {
  %4 = alloca ptr, align 8
  %5 = alloca ptr, align 8
  %6 = alloca ptr, align 8
  %7 = alloca ptr, align 8
  %8 = alloca i32, align 4
  %9 = alloca ptr, align 8
  store ptr %0, ptr %5, align 8
  store ptr %1, ptr %6, align 8
  store ptr %2, ptr %7, align 8
  %10 = load ptr, ptr %5, align 8
  %11 = load ptr, ptr %6, align 8
  %12 = load ptr, ptr %7, align 8
  %13 = call noundef ptr @_ZN17ClassPathZipEntry10open_entryEP10JavaThreadPKcPib(ptr noundef nonnull align 8 dereferenceable(33) %10, ptr noundef %11, ptr noundef %12, ptr noundef %8, i1 noundef zeroext false)
  store ptr %13, ptr %9, align 8
  %14 = load ptr, ptr %9, align 8
  %15 = icmp eq ptr %14, null
  br i1 %15, label %16, label %17

16:                                               ; preds = %3
  store ptr null, ptr %4, align 8
  br label %32

17:                                               ; preds = %3
  %18 = load i8, ptr @UsePerfData, align 1
  %19 = trunc i8 %18 to i1
  br i1 %19, label %20, label %24

20:                                               ; preds = %17
  %21 = call noundef ptr @_ZN11ClassLoader29perf_sys_classfile_bytes_readEv()
  %22 = load i32, ptr %8, align 4
  %23 = sext i32 %22 to i64
  call void @_ZN15PerfLongVariant3incEl(ptr noundef nonnull align 8 dereferenceable(56) %21, i64 noundef %23)
  br label %24

24:                                               ; preds = %20, %17
  %25 = call noundef ptr @_ZN11ResourceObjnwEm(i64 noundef 48)
  %26 = load ptr, ptr %9, align 8
  %27 = load i32, ptr %8, align 4
  %28 = getelementptr inbounds %class.ClassPathZipEntry, ptr %10, i32 0, i32 2
  %29 = load ptr, ptr %28, align 8
  %30 = load i8, ptr @_ZN15ClassFileStream6verifyE, align 1
  %31 = trunc i8 %30 to i1
  call void @_ZN15ClassFileStreamC1EPKhiPKcbb(ptr noundef nonnull align 8 dereferenceable(42) %25, ptr noundef %26, i32 noundef %27, ptr noundef %29, i1 noundef zeroext %31, i1 noundef zeroext false)
  store ptr %25, ptr %4, align 8
  br label %32

32:                                               ; preds = %24, %16
  %33 = load ptr, ptr %4, align 8
  ret ptr %33
}