; Function Attrs: mustprogress nounwind uwtable
define hidden noundef ptr @_ZN17ClassPathZipEntry11open_streamEP10JavaThreadPKc(ptr nocapture noundef nonnull readonly align 8 dereferenceable(33) %0, ptr noundef %1, ptr noundef %2) unnamed_addr #0 align 2 {
  %4 = alloca i32, align 4
  %5 = call noundef ptr @_ZN17ClassPathZipEntry10open_entryEP10JavaThreadPKcPib(ptr noundef nonnull align 8 dereferenceable(33) %0, ptr noundef %1, ptr noundef %2, ptr noundef nonnull %4, i1 noundef zeroext false)
  %6 = icmp eq ptr %5, null
  br i1 %6, label %25, label %7

7:                                                ; preds = %3
  %8 = load i8, ptr @UsePerfData, align 1
  %9 = trunc i8 %8 to i1
  br i1 %9, label %10, label %18

10:                                               ; preds = %7
  %11 = load ptr, ptr @_ZN11ClassLoader30_perf_sys_classfile_bytes_readE, align 8
  %12 = load i32, ptr %4, align 4
  %13 = sext i32 %12 to i64
  %14 = getelementptr inbounds i8, ptr %11, i64 40
  %15 = load ptr, ptr %14, align 8
  %16 = load i64, ptr %15, align 8
  %17 = add nsw i64 %16, %13
  store i64 %17, ptr %15, align 8
  br label %18

18:                                               ; preds = %10, %7
  %19 = call noundef ptr @_Z23resource_allocate_bytesmN17AllocFailStrategy13AllocFailEnumE(i64 noundef 48, i32 noundef 0) #20
  %20 = load i32, ptr %4, align 4
  %21 = getelementptr inbounds i8, ptr %0, i64 24
  %22 = load ptr, ptr %21, align 8
  %23 = load i8, ptr @_ZN15ClassFileStream6verifyE, align 1
  %24 = trunc i8 %23 to i1
  call void @_ZN15ClassFileStreamC1EPKhiPKcbb(ptr noundef nonnull align 8 dereferenceable(42) %19, ptr noundef nonnull %5, i32 noundef %20, ptr noundef %22, i1 noundef zeroext %24, i1 noundef zeroext false) #20
  br label %25

25:                                               ; preds = %3, %18
  %.0 = phi ptr [ %19, %18 ], [ null, %3 ]
  ret ptr %.0
}